target datalayout = "e-m:e-p270:32:32-p271:32:32-p272:64:64-i64:64-i128:128-f80:128-n8:16:32:64-S128"
target triple = "x86_64-pc-linux-gnu"

%struct.Vec_Int_t_ = type { i32, i32, ptr }
%struct.Gia_Man_t_ = type { ptr, ptr, i32, i32, i32, i32, ptr, ptr, i32, i32, i32, ptr, ptr, %struct.Vec_Int_t_, %struct.Vec_Int_t_, i32, i32, i32, %struct.Vec_Int_t_, ptr, ptr, ptr, i32, i32, i32, i32, ptr, ptr, ptr, ptr, ptr, i32, i32, ptr, i32, ptr, ptr, ptr, ptr, ptr, ptr, ptr, ptr, ptr, ptr, ptr, ptr, ptr, ptr, ptr, ptr, ptr, ptr, %struct.Vec_Int_t_, %struct.Vec_Int_t_, ptr, ptr, ptr, ptr, ptr, ptr, ptr, ptr, ptr, ptr, ptr, ptr, ptr, ptr, ptr, ptr, ptr, ptr, ptr, ptr, ptr, i32, float, float, ptr, ptr, i32, ptr, ptr, ptr, ptr, ptr, ptr, ptr, ptr, ptr, ptr, ptr, ptr, ptr, ptr, ptr, i64, i64, ptr, ptr, i32, i32, i32, i32, i32, i32, i32, i32, i32, i32, i32, i32, ptr, ptr, ptr, ptr, ptr, ptr, ptr, ptr, i32, i32, i32, ptr, i32, i32, ptr, ptr, ptr, ptr, ptr, ptr, i32, i32, ptr, %struct.Vec_Int_t_, %struct.Vec_Int_t_, %struct.Vec_Int_t_, ptr, ptr, ptr, i32, i32, i32, i32, ptr, ptr, ptr, ptr, ptr }
%struct.Gia_Obj_t_ = type <{ i64, i32 }>

@.str.33 = private unnamed_addr constant [8 x i8] c"%s %s.\0A\00", align 1
@.str.34 = private unnamed_addr constant [12 x i8] c"Equivalence\00", align 1
@.str.35 = private unnamed_addr constant [8 x i8] c"Overlap\00", align 1
@.str.36 = private unnamed_addr constant [6 x i8] c"holds\00", align 1
@.str.37 = private unnamed_addr constant [6 x i8] c"fails\00", align 1

; Function Attrs: inlinehint mustprogress nounwind uwtable
define internal noundef i32 @_ZL15Gia_ObjFaninId0P10Gia_Obj_t_i(ptr noundef %0, i32 noundef %1) #4 {
  %3 = alloca ptr, align 8
  %4 = alloca i32, align 4
  store ptr %0, ptr %3, align 8, !tbaa !202
  store i32 %1, ptr %4, align 4, !tbaa !12
  %5 = load i32, ptr %4, align 4, !tbaa !12
  %6 = load ptr, ptr %3, align 8, !tbaa !202
  %7 = load i64, ptr %6, align 4
  %8 = and i64 %7, 536870911
  %9 = trunc i64 %8 to i32
  %10 = sub nsw i32 %5, %9
  ret i32 %10
}

; Function Attrs: inlinehint mustprogress nounwind uwtable
define internal noundef i32 @_ZL9Gia_ObjIdP10Gia_Man_t_P10Gia_Obj_t_(ptr noundef %0, ptr noundef %1) #4 {
  %3 = alloca ptr, align 8
  %4 = alloca ptr, align 8
  store ptr %0, ptr %3, align 8, !tbaa !144
  store ptr %1, ptr %4, align 8, !tbaa !202
  %5 = load ptr, ptr %4, align 8, !tbaa !202
  %6 = load ptr, ptr %3, align 8, !tbaa !144
  %7 = getelementptr inbounds nuw %struct.Gia_Man_t_, ptr %6, i32 0, i32 6
  %8 = load ptr, ptr %7, align 8, !tbaa !203
  %9 = ptrtoint ptr %5 to i64
  %10 = ptrtoint ptr %8 to i64
  %11 = sub i64 %9, %10
  %12 = sdiv exact i64 %11, 12
  %13 = trunc i64 %12 to i32
  ret i32 %13
}

; Function Attrs: inlinehint mustprogress nounwind uwtable
define internal noundef ptr @_ZL10Gia_ManObjP10Gia_Man_t_i(ptr noundef %0, i32 noundef %1) #4 {
  %3 = alloca ptr, align 8
  %4 = alloca i32, align 4
  store ptr %0, ptr %3, align 8, !tbaa !144
  store i32 %1, ptr %4, align 4, !tbaa !12
  %5 = load ptr, ptr %3, align 8, !tbaa !144
  %6 = getelementptr inbounds nuw %struct.Gia_Man_t_, ptr %5, i32 0, i32 6
  %7 = load ptr, ptr %6, align 8, !tbaa !203
  %8 = load i32, ptr %4, align 4, !tbaa !12
  %9 = sext i32 %8 to i64
  %10 = getelementptr inbounds %struct.Gia_Obj_t_, ptr %7, i64 %9
  ret ptr %10
}

; Function Attrs: inlinehint mustprogress nounwind uwtable
define internal noundef i32 @_ZL12Vec_IntEntryP10Vec_Int_t_i(ptr noundef %0, i32 noundef %1) #4 {
  %3 = alloca ptr, align 8
  %4 = alloca i32, align 4
  store ptr %0, ptr %3, align 8, !tbaa !156
  store i32 %1, ptr %4, align 4, !tbaa !12
  %5 = load ptr, ptr %3, align 8, !tbaa !156
  %6 = getelementptr inbounds nuw %struct.Vec_Int_t_, ptr %5, i32 0, i32 2
  %7 = load ptr, ptr %6, align 8, !tbaa !162
  %8 = load i32, ptr %4, align 4, !tbaa !12
  %9 = sext i32 %8 to i64
  %10 = getelementptr inbounds i32, ptr %7, i64 %9
  %11 = load i32, ptr %10, align 4, !tbaa !12
  ret i32 %11
}

; Function Attrs: mustprogress nounwind uwtable
define void @_Z20glucose2_solver_stopPN6Gluco210SimpSolverE(ptr noundef %0) #0 {
  %2 = alloca ptr, align 8
  store ptr %0, ptr %2, align 8, !tbaa !3
  %3 = load ptr, ptr %2, align 8, !tbaa !3
  %4 = icmp eq ptr %3, null
  br i1 %4, label %9, label %5

5:                                                ; preds = %1
  %6 = load ptr, ptr %3, align 8, !tbaa !8
  %7 = getelementptr inbounds ptr, ptr %6, i64 1
  %8 = load ptr, ptr %7, align 8
  call void %8(ptr noundef nonnull align 8 dereferenceable(1684) %3) #15
  br label %9

9:                                                ; preds = %5, %1
  ret void
}

; Function Attrs: mustprogress nounwind uwtable
define void @_Z21glucose2_solver_resetPN6Gluco210SimpSolverE(ptr noundef %0) #0 {
  %2 = alloca ptr, align 8
  store ptr %0, ptr %2, align 8, !tbaa !3
  %3 = load ptr, ptr %2, align 8, !tbaa !3
  %4 = load ptr, ptr %3, align 8, !tbaa !8
  %5 = getelementptr inbounds ptr, ptr %4, i64 2
  %6 = load ptr, ptr %5, align 8
  call void %6(ptr noundef nonnull align 8 dereferenceable(1684) %3)
  ret void
}

; Function Attrs: inlinehint mustprogress nounwind uwtable
define internal noundef i32 @_ZL11Abc_Var2Litii(i32 noundef %0, i32 noundef %1) #4 {
  %3 = alloca i32, align 4
  %4 = alloca i32, align 4
  store i32 %0, ptr %3, align 4, !tbaa !12
  store i32 %1, ptr %4, align 4, !tbaa !12
  %5 = load i32, ptr %3, align 4, !tbaa !12
  %6 = load i32, ptr %3, align 4, !tbaa !12
  %7 = add nsw i32 %5, %6
  %8 = load i32, ptr %4, align 4, !tbaa !12
  %9 = add nsw i32 %7, %8
  ret i32 %9
}

; Function Attrs: inlinehint mustprogress nounwind uwtable
define internal noundef i32 @_ZL14Gia_ObjFaninC0P10Gia_Obj_t_(ptr noundef %0) #4 {
  %2 = alloca ptr, align 8
  store ptr %0, ptr %2, align 8, !tbaa !202
  %3 = load ptr, ptr %2, align 8, !tbaa !202
  %4 = load i64, ptr %3, align 4
  %5 = lshr i64 %4, 29
  %6 = and i64 %5, 1
  %7 = trunc i64 %6 to i32
  ret i32 %7
}

; Function Attrs: inlinehint mustprogress nounwind uwtable
define internal noundef i32 @_ZL16Gia_ObjFaninId0pP10Gia_Man_t_P10Gia_Obj_t_(ptr noundef %0, ptr noundef %1) #4 {
  %3 = alloca ptr, align 8
  %4 = alloca ptr, align 8
  store ptr %0, ptr %3, align 8, !tbaa !144
  store ptr %1, ptr %4, align 8, !tbaa !202
  %5 = load ptr, ptr %4, align 8, !tbaa !202
  %6 = load ptr, ptr %3, align 8, !tbaa !144
  %7 = load ptr, ptr %4, align 8, !tbaa !202
  %8 = call noundef i32 @_ZL9Gia_ObjIdP10Gia_Man_t_P10Gia_Obj_t_(ptr noundef %6, ptr noundef %7)
  %9 = call noundef i32 @_ZL15Gia_ObjFaninId0P10Gia_Obj_t_i(ptr noundef %5, i32 noundef %8)
  ret i32 %9
}

; Function Attrs: inlinehint mustprogress nounwind uwtable
define internal noundef ptr @_ZL9Gia_ManCoP10Gia_Man_t_i(ptr noundef %0, i32 noundef %1) #4 {
  %3 = alloca ptr, align 8
  %4 = alloca i32, align 4
  store ptr %0, ptr %3, align 8, !tbaa !144
  store i32 %1, ptr %4, align 4, !tbaa !12
  %5 = load ptr, ptr %3, align 8, !tbaa !144
  %6 = load ptr, ptr %3, align 8, !tbaa !144
  %7 = getelementptr inbounds nuw %struct.Gia_Man_t_, ptr %6, i32 0, i32 12
  %8 = load ptr, ptr %7, align 8, !tbaa !200
  %9 = load i32, ptr %4, align 4, !tbaa !12
  %10 = call noundef i32 @_ZL12Vec_IntEntryP10Vec_Int_t_i(ptr noundef %8, i32 noundef %9)
  %11 = call noundef ptr @_ZL10Gia_ManObjP10Gia_Man_t_i(ptr noundef %5, i32 noundef %10)
  ret ptr %11
}

; Function Attrs: mustprogress nounwind uwtable
define noundef ptr @_Z21glucose2_solver_startv() #0 {
  %1 = alloca ptr, align 8
  call void @llvm.lifetime.start.p0(i64 8, ptr %1) #15
  %2 = call noalias noundef nonnull ptr @_Znwm(i64 noundef 1688) #16
  call void @_ZN6Gluco210SimpSolverC1Ev(ptr noundef nonnull align 8 dereferenceable(1684) %2)
  store ptr %2, ptr %1, align 8, !tbaa !3
  %3 = load ptr, ptr %1, align 8, !tbaa !3
  call void @_ZN6Gluco26Solver18setIncrementalModeEv(ptr noundef nonnull align 8 dereferenceable(1416) %3)
  %4 = load ptr, ptr %1, align 8, !tbaa !3
  call void @llvm.lifetime.end.p0(i64 8, ptr %1) #15
  ret ptr %4
}

; Function Attrs: mustprogress nounwind uwtable
define void @bmcg2_sat_solver_stop(ptr noundef %0) #0 {
  %2 = alloca ptr, align 8
  store ptr %0, ptr %2, align 8, !tbaa !30
  %3 = load ptr, ptr %2, align 8, !tbaa !30
  call void @_Z20glucose2_solver_stopPN6Gluco210SimpSolverE(ptr noundef %3)
  ret void
}

; Function Attrs: mustprogress nounwind uwtable
define void @bmcg2_sat_solver_reset(ptr noundef %0) #0 {
  %2 = alloca ptr, align 8
  store ptr %0, ptr %2, align 8, !tbaa !30
  %3 = load ptr, ptr %2, align 8, !tbaa !30
  call void @_Z21glucose2_solver_resetPN6Gluco210SimpSolverE(ptr noundef %3)
  ret void
}

; Function Attrs: inlinehint mustprogress nounwind uwtable
define internal noundef i32 @_ZL17Gia_ObjFaninLit0pP10Gia_Man_t_P10Gia_Obj_t_(ptr noundef %0, ptr noundef %1) #4 {
  %3 = alloca ptr, align 8
  %4 = alloca ptr, align 8
  store ptr %0, ptr %3, align 8, !tbaa !144
  store ptr %1, ptr %4, align 8, !tbaa !202
  %5 = load ptr, ptr %3, align 8, !tbaa !144
  %6 = load ptr, ptr %4, align 8, !tbaa !202
  %7 = call noundef i32 @_ZL16Gia_ObjFaninId0pP10Gia_Man_t_P10Gia_Obj_t_(ptr noundef %5, ptr noundef %6)
  %8 = load ptr, ptr %4, align 8, !tbaa !202
  %9 = call noundef i32 @_ZL14Gia_ObjFaninC0P10Gia_Obj_t_(ptr noundef %8)
  %10 = call noundef i32 @_ZL11Abc_Var2Litii(i32 noundef %7, i32 noundef %9)
  ret i32 %10
}

; Function Attrs: inlinehint mustprogress nounwind uwtable
define internal noundef ptr @_ZL9Gia_ManPoP10Gia_Man_t_i(ptr noundef %0, i32 noundef %1) #4 {
  %3 = alloca ptr, align 8
  %4 = alloca i32, align 4
  store ptr %0, ptr %3, align 8, !tbaa !144
  store i32 %1, ptr %4, align 4, !tbaa !12
  %5 = load ptr, ptr %3, align 8, !tbaa !144
  %6 = load i32, ptr %4, align 4, !tbaa !12
  %7 = call noundef ptr @_ZL9Gia_ManCoP10Gia_Man_t_i(ptr noundef %5, i32 noundef %6)
  ret ptr %7
}

; Function Attrs: mustprogress nounwind uwtable
define ptr @bmcg2_sat_solver_start() #0 {
  %1 = call noundef ptr @_Z21glucose2_solver_startv()
  ret ptr %1
}

; Function Attrs: mustprogress nounwind uwtable
define void @_Z26Glucose2_CheckTwoNodesTestP10Gia_Man_t_(ptr noundef %0) #0 {
  %2 = alloca ptr, align 8
  %3 = alloca i32, align 4
  %4 = alloca i32, align 4
  %5 = alloca ptr, align 8
  store ptr %0, ptr %2, align 8, !tbaa !144
  call void @llvm.lifetime.start.p0(i64 4, ptr %3) #15
  call void @llvm.lifetime.start.p0(i64 4, ptr %4) #15
  call void @llvm.lifetime.start.p0(i64 8, ptr %5) #15
  %6 = call ptr @bmcg2_sat_solver_start()
  store ptr %6, ptr %5, align 8, !tbaa !30
  store i32 0, ptr %3, align 4, !tbaa !12
  br label %7

7:                                                ; preds = %35, %1
  %8 = load i32, ptr %3, align 4, !tbaa !12
  %9 = icmp slt i32 %8, 2
  br i1 %9, label %10, label %38

10:                                               ; preds = %7
  %11 = load ptr, ptr %5, align 8, !tbaa !30
  %12 = load ptr, ptr %2, align 8, !tbaa !144
  %13 = load ptr, ptr %2, align 8, !tbaa !144
  %14 = load ptr, ptr %2, align 8, !tbaa !144
  %15 = call noundef ptr @_ZL9Gia_ManPoP10Gia_Man_t_i(ptr noundef %14, i32 noundef 0)
  %16 = call noundef i32 @_ZL17Gia_ObjFaninLit0pP10Gia_Man_t_P10Gia_Obj_t_(ptr noundef %13, ptr noundef %15)
  %17 = load ptr, ptr %2, align 8, !tbaa !144
  %18 = load ptr, ptr %2, align 8, !tbaa !144
  %19 = call noundef ptr @_ZL9Gia_ManPoP10Gia_Man_t_i(ptr noundef %18, i32 noundef 1)
  %20 = call noundef i32 @_ZL17Gia_ObjFaninLit0pP10Gia_Man_t_P10Gia_Obj_t_(ptr noundef %17, ptr noundef %19)
  %21 = load i32, ptr %3, align 4, !tbaa !12
  %22 = call i32 @bmcg2_sat_solver_equiv_overlap_check(ptr noundef %11, ptr noundef %12, i32 noundef %16, i32 noundef %20, i32 noundef %21)
  store i32 %22, ptr %4, align 4, !tbaa !12
  %23 = load ptr, ptr %5, align 8, !tbaa !30
  call void @bmcg2_sat_solver_reset(ptr noundef %23)
  %24 = load i32, ptr %3, align 4, !tbaa !12
  %25 = icmp ne i32 %24, 0
  %26 = select i1 %25, ptr @.str.34, ptr @.str.35
  %27 = load i32, ptr %4, align 4, !tbaa !12
  %28 = icmp ne i32 %27, 0
  br i1 %28, label %29, label %30

29:                                               ; preds = %10
  br label %31

30:                                               ; preds = %10
  br label %31

31:                                               ; preds = %30, %29
  %32 = phi ptr [ @.str.36, %29 ], [ @.str.37, %30 ]
  %33 = getelementptr inbounds [6 x i8], ptr %32, i64 0, i64 0
  %34 = call i32 (ptr, ...) @printf(ptr noundef @.str.33, ptr noundef %26, ptr noundef %33)
  br label %35

35:                                               ; preds = %31
  %36 = load i32, ptr %3, align 4, !tbaa !12
  %37 = add nsw i32 %36, 1
  store i32 %37, ptr %3, align 4, !tbaa !12
  br label %7, !llvm.loop !223

38:                                               ; preds = %7
  %39 = load ptr, ptr %5, align 8, !tbaa !30
  call void @bmcg2_sat_solver_stop(ptr noundef %39)
  call void @llvm.lifetime.end.p0(i64 8, ptr %5) #15
  call void @llvm.lifetime.end.p0(i64 4, ptr %4) #15
  call void @llvm.lifetime.end.p0(i64 4, ptr %3) #15
  ret void
}