; Function Attrs: mustprogress nounwind uwtable
define void @_Z26Glucose2_CheckTwoNodesTestP10Gia_Man_t_(ptr noundef %0) local_unnamed_addr #0 {
  %2 = tail call noalias noundef nonnull dereferenceable(1688) ptr @_Znwm(i64 noundef 1688) #29
  tail call void @_ZN6Gluco210SimpSolverC1Ev(ptr noundef nonnull align 8 dereferenceable(1684) %2) #30
  tail call void @_ZN6Gluco26Solver18setIncrementalModeEv(ptr noundef nonnull align 8 dereferenceable(1416) %2) #30
  %3 = getelementptr i8, ptr %0, i64 32
  %4 = getelementptr i8, ptr %0, i64 72
  br label %5

5:                                                ; preds = %1, %5
  %.not = phi i1 [ true, %1 ], [ false, %5 ]
  %.019 = phi i32 [ 0, %1 ], [ 1, %5 ]
  %.val14 = load ptr, ptr %3, align 8, !tbaa !174
  %.val15 = load ptr, ptr %4, align 8, !tbaa !182
  %6 = getelementptr i8, ptr %.val15, i64 8
  %.val15.val = load ptr, ptr %6, align 8, !tbaa !151
  %7 = load i32, ptr %.val15.val, align 4, !tbaa !6
  %8 = sext i32 %7 to i64
  %9 = getelementptr inbounds %struct.Gia_Obj_t_, ptr %.val14, i64 %8
  %.val3.i.i = load i64, ptr %9, align 4
  %10 = trunc i64 %.val3.i.i to i32
  %11 = and i32 %10, 536870911
  %12 = sub nsw i32 %7, %11
  %13 = lshr i32 %10, 29
  %14 = and i32 %13, 1
  %15 = shl nsw i32 %12, 1
  %16 = or disjoint i32 %15, %14
  %17 = getelementptr inbounds nuw i8, ptr %.val15.val, i64 4
  %18 = load i32, ptr %17, align 4, !tbaa !6
  %19 = sext i32 %18 to i64
  %20 = getelementptr inbounds %struct.Gia_Obj_t_, ptr %.val14, i64 %19
  %.val3.i.i18 = load i64, ptr %20, align 4
  %21 = trunc i64 %.val3.i.i18 to i32
  %22 = and i32 %21, 536870911
  %23 = sub nsw i32 %18, %22
  %24 = lshr i32 %21, 29
  %25 = and i32 %24, 1
  %26 = shl nsw i32 %23, 1
  %27 = or disjoint i32 %26, %25
  %28 = tail call i32 @bmcg2_sat_solver_equiv_overlap_check(ptr noundef nonnull %2, ptr noundef %0, i32 noundef %16, i32 noundef %27, i32 noundef %.019)
  %29 = load ptr, ptr %2, align 8, !tbaa !3
  %30 = getelementptr inbounds nuw i8, ptr %29, i64 16
  %31 = load ptr, ptr %30, align 8
  tail call void %31(ptr noundef nonnull align 8 dereferenceable(1684) %2) #30
  %32 = select i1 %.not, ptr @.str.35, ptr @.str.34
  %.not12 = icmp eq i32 %28, 0
  %.str.36..str.37 = select i1 %.not12, ptr @.str.37, ptr @.str.36
  %33 = tail call i32 (ptr, ...) @printf(ptr noundef nonnull dereferenceable(1) @.str.33, ptr noundef nonnull %32, ptr noundef nonnull %.str.36..str.37)
  br i1 %.not, label %5, label %34, !llvm.loop !197

34:                                               ; preds = %5
  %35 = load ptr, ptr %2, align 8, !tbaa !3
  %36 = getelementptr inbounds nuw i8, ptr %35, i64 8
  %37 = load ptr, ptr %36, align 8
  tail call void %37(ptr noundef nonnull align 8 dereferenceable(1684) %2) #30
  ret void
}